Certificate:
    Data:
        Version: 3 (0x2)
        Serial Number: 2 (0x2)
        Signature Algorithm: sha256WithRSAEncryption
        Issuer: C=JP, ST=Tokyo, O=OKTAJ-CA, Ltd., OU=CA, CN=oktajca.oktajp.local
        Validity
            Not Before: Mar  9 08:45:30 2023 GMT
            Not After : Mar  6 08:45:30 2033 GMT
        Subject: C=JP, ST=Saitama, L=Soka, O=InterCA01, Ltd., OU=ICA01, CN=ica.interca01.local
        Subject Public Key Info:
            Public Key Algorithm: rsaEncryption
                Public-Key: (2048 bit)
                Modulus:
                    00:eb:ec:0e:fc:e1:66:48:35:82:4a:15:0d:1e:64:
                    95:39:c2:76:d7:0f:f0:c2:b6:f5:c7:1d:ab:51:78:
                    62:71:7a:02:34:ea:16:65:87:ca:f6:9d:d9:15:6a:
                    13:ac:e1:f4:6b:fe:79:dd:84:ff:54:0e:3b:fc:7e:
                    03:64:25:6f:b4:57:9d:2b:2c:a6:e4:6f:f2:57:78:
                    85:cd:21:4f:72:5a:e7:d7:af:c7:69:78:4c:25:9b:
                    13:e4:b4:78:c0:bb:6a:34:85:49:6a:7e:97:e4:a5:
                    c6:d9:94:30:32:46:ee:24:74:73:fe:c9:9e:fc:92:
                    6c:2a:f0:a3:5d:1a:0d:b9:91:d1:f2:9f:47:47:09:
                    7a:b2:10:b0:cc:ec:c8:be:b5:19:2f:f5:a6:39:85:
                    b4:29:18:2e:83:01:22:46:37:77:39:3c:95:43:37:
                    5f:b0:c5:2e:2d:e0:21:48:28:e3:c5:d8:1e:90:01:
                    b2:fb:6c:f4:42:c8:25:31:dd:96:35:05:3c:62:62:
                    2d:8c:0a:e8:e3:f2:5b:87:8b:9a:4c:a5:b6:2d:3c:
                    08:91:82:e8:3d:58:cf:dc:58:05:cf:f2:9e:ad:cc:
                    96:37:ea:6b:8a:d4:32:16:cf:1a:25:59:5b:0f:90:
                    8c:e5:3c:94:4f:cd:19:c1:70:7e:8a:18:53:28:44:
                    b5:df
                Exponent: 65537 (0x10001)
        X509v3 extensions:
            X509v3 CRL Distribution Points: 
                Full Name:
                  URI:https://raw.githubusercontent.com/tatatak/temp/main/rootcacrl.crl
            X509v3 Subject Key Identifier: 
                C5:14:07:54:67:4A:FB:04:EB:7B:4C:BF:0A:94:A4:35:DD:15:87:81
            X509v3 Authority Key Identifier: 
                62:35:CE:54:F0:2F:8C:79:8E:4A:E1:77:EB:CA:DA:4F:F6:8B:87:BA
            X509v3 Basic Constraints: critical
                CA:TRUE
            X509v3 Key Usage: 
                Certificate Sign, CRL Sign
    Signature Algorithm: sha256WithRSAEncryption
    Signature Value:
        e1:44:8f:3e:55:88:dd:82:00:c6:35:5e:d0:a8:87:15:4d:e1:
        60:49:54:85:cc:da:19:eb:f9:35:9e:70:e6:bd:4f:d1:ad:55:
        59:a0:d4:1c:42:f7:b5:64:f1:51:59:a9:ea:11:0f:96:ab:ee:
        88:7b:7c:77:e4:b4:61:bb:58:42:c3:08:f9:0e:65:20:68:20:
        29:12:b2:ed:9d:d1:30:aa:b8:e2:7c:79:f2:63:34:fc:57:f6:
        51:33:d2:c1:57:5b:bf:bb:9e:60:ee:2b:2d:98:65:6f:ac:9d:
        3c:01:c1:5f:5f:93:e7:48:ee:7a:3b:a8:37:e6:a5:9d:1b:fc:
        93:90:23:7f:11:7c:42:ad:e6:4c:63:d5:bb:ba:34:10:30:a1:
        33:17:28:06:43:86:24:44:7d:05:74:94:ac:17:24:4d:b5:4e:
        a7:4d:64:ce:de:dd:b8:35:3f:94:29:ab:b5:df:3a:6d:ba:21:
        1b:e4:bc:12:de:ca:2b:d4:2e:e7:21:d3:2f:d4:ee:cc:0e:00:
        26:9e:f9:0e:b5:ef:2b:2a:61:53:97:c6:2d:fd:0c:e0:57:bd:
        9d:f4:36:19:b7:6d:eb:64:06:ce:b3:e7:73:db:ab:ca:ea:c3:
        3c:7e:92:b5:cf:02:d5:da:1b:22:ec:94:2d:49:83:56:d9:3d:
        e3:25:35:f0
-----BEGIN CERTIFICATE-----
MIIECTCCAvGgAwIBAgIBAjANBgkqhkiG9w0BAQsFADBiMQswCQYDVQQGEwJKUDEO
MAwGA1UECAwFVG9reW8xFzAVBgNVBAoMDk9LVEFKLUNBLCBMdGQuMQswCQYDVQQL
DAJDQTEdMBsGA1UEAwwUb2t0YWpjYS5va3RhanAubG9jYWwwHhcNMjMwMzA5MDg0
NTMwWhcNMzMwMzA2MDg0NTMwWjB2MQswCQYDVQQGEwJKUDEQMA4GA1UECAwHU2Fp
dGFtYTENMAsGA1UEBwwEU29rYTEYMBYGA1UECgwPSW50ZXJDQTAxLCBMdGQuMQ4w
DAYDVQQLDAVJQ0EwMTEcMBoGA1UEAwwTaWNhLmludGVyY2EwMS5sb2NhbDCCASIw
DQYJKoZIhvcNAQEBBQADggEPADCCAQoCggEBAOvsDvzhZkg1gkoVDR5klTnCdtcP
8MK29ccdq1F4YnF6AjTqFmWHyvad2RVqE6zh9Gv+ed2E/1QOO/x+A2Qlb7RXnSss
puRv8ld4hc0hT3Ja59evx2l4TCWbE+S0eMC7ajSFSWp+l+SlxtmUMDJG7iR0c/7J
nvySbCrwo10aDbmR0fKfR0cJerIQsMzsyL61GS/1pjmFtCkYLoMBIkY3dzk8lUM3
X7DFLi3gIUgo48XYHpABsvts9ELIJTHdljUFPGJiLYwK6OPyW4eLmkylti08CJGC
6D1Yz9xYBc/ynq3Mljfqa4rUMhbPGiVZWw+QjOU8lE/NGcFwfooYUyhEtd8CAwEA
AaOBtTCBsjBSBgNVHR8ESzBJMEegRaBDhkFodHRwczovL3Jhdy5naXRodWJ1c2Vy
Y29udGVudC5jb20vdGF0YXRhay90ZW1wL21haW4vcm9vdGNhY3JsLmNybDAdBgNV
HQ4EFgQUxRQHVGdK+wTre0y/CpSkNd0Vh4EwHwYDVR0jBBgwFoAUYjXOVPAvjHmO
SuF368raT/aLh7owDwYDVR0TAQH/BAUwAwEB/zALBgNVHQ8EBAMCAQYwDQYJKoZI
hvcNAQELBQADggEBAOFEjz5ViN2CAMY1XtCohxVN4WBJVIXM2hnr+TWecOa9T9Gt
VVmg1BxC97Vk8VFZqeoRD5ar7oh7fHfktGG7WELDCPkOZSBoICkSsu2d0TCquOJ8
efJjNPxX9lEz0sFXW7+7nmDuKy2YZW+snTwBwV9fk+dI7no7qDfmpZ0b/JOQI38R
fEKt5kxj1bu6NBAwoTMXKAZDhiREfQV0lKwXJE21TqdNZM7e3bg1P5Qpq7XfOm26
IRvkvBLeyivULuch0y/U7swOACae+Q617ysqYVOXxi39DOBXvZ30Nhm3betkBs6z
53Pbq8rqwzx+krXPAtXaGyLslC1Jg1bZPeMlNfA=
-----END CERTIFICATE-----
